target datalayout = "e-m:e-p270:32:32-p271:32:32-p272:64:64-i64:64-i128:128-f80:128-n8:16:32:64-S128"
target triple = "x86_64-pc-linux-gnu"

; Function Attrs: nounwind uwtable
define hidden void @internal_zip_deconstruct_bytes(ptr noundef %0, ptr noundef %1, i64 noundef %2) #0 {
  %4 = alloca ptr, align 8
  %5 = alloca ptr, align 8
  %6 = alloca i64, align 8
  %7 = alloca i32, align 4
  %8 = alloca ptr, align 8
  %9 = alloca ptr, align 8
  %10 = alloca ptr, align 8
  %11 = alloca ptr, align 8
  %12 = alloca i32, align 4
  store ptr %0, ptr %4, align 8, !tbaa !3
  store ptr %1, ptr %5, align 8, !tbaa !3
  store i64 %2, ptr %6, align 8, !tbaa !8
  call void @llvm.lifetime.start.p0(i64 4, ptr %7) #6
  call void @llvm.lifetime.start.p0(i64 8, ptr %8) #6
  %13 = load ptr, ptr %4, align 8, !tbaa !3
  store ptr %13, ptr %8, align 8, !tbaa !3
  call void @llvm.lifetime.start.p0(i64 8, ptr %9) #6
  %14 = load ptr, ptr %8, align 8, !tbaa !3
  %15 = load i64, ptr %6, align 8, !tbaa !8
  %16 = add i64 %15, 1
  %17 = udiv i64 %16, 2
  %18 = getelementptr inbounds nuw i8, ptr %14, i64 %17
  store ptr %18, ptr %9, align 8, !tbaa !3
  call void @llvm.lifetime.start.p0(i64 8, ptr %10) #6
  %19 = load ptr, ptr %5, align 8, !tbaa !3
  store ptr %19, ptr %10, align 8, !tbaa !3
  call void @llvm.lifetime.start.p0(i64 8, ptr %11) #6
  %20 = load ptr, ptr %10, align 8, !tbaa !3
  %21 = load i64, ptr %6, align 8, !tbaa !8
  %22 = getelementptr inbounds nuw i8, ptr %20, i64 %21
  store ptr %22, ptr %11, align 8, !tbaa !3
  br label %23

23:                                               ; preds = %42, %3
  %24 = load ptr, ptr %10, align 8, !tbaa !3
  %25 = load ptr, ptr %11, align 8, !tbaa !3
  %26 = icmp ult ptr %24, %25
  br i1 %26, label %27, label %43

27:                                               ; preds = %23
  %28 = load ptr, ptr %10, align 8, !tbaa !3
  %29 = getelementptr inbounds nuw i8, ptr %28, i32 1
  store ptr %29, ptr %10, align 8, !tbaa !3
  %30 = load i8, ptr %28, align 1, !tbaa !10
  %31 = load ptr, ptr %8, align 8, !tbaa !3
  %32 = getelementptr inbounds nuw i8, ptr %31, i32 1
  store ptr %32, ptr %8, align 8, !tbaa !3
  store i8 %30, ptr %31, align 1, !tbaa !10
  %33 = load ptr, ptr %10, align 8, !tbaa !3
  %34 = load ptr, ptr %11, align 8, !tbaa !3
  %35 = icmp ult ptr %33, %34
  br i1 %35, label %36, label %42

36:                                               ; preds = %27
  %37 = load ptr, ptr %10, align 8, !tbaa !3
  %38 = getelementptr inbounds nuw i8, ptr %37, i32 1
  store ptr %38, ptr %10, align 8, !tbaa !3
  %39 = load i8, ptr %37, align 1, !tbaa !10
  %40 = load ptr, ptr %9, align 8, !tbaa !3
  %41 = getelementptr inbounds nuw i8, ptr %40, i32 1
  store ptr %41, ptr %9, align 8, !tbaa !3
  store i8 %39, ptr %40, align 1, !tbaa !10
  br label %42

42:                                               ; preds = %36, %27
  br label %23, !llvm.loop !18

43:                                               ; preds = %23
  %44 = load ptr, ptr %4, align 8, !tbaa !3
  store ptr %44, ptr %8, align 8, !tbaa !3
  %45 = load ptr, ptr %8, align 8, !tbaa !3
  %46 = load i64, ptr %6, align 8, !tbaa !8
  %47 = getelementptr inbounds nuw i8, ptr %45, i64 %46
  store ptr %47, ptr %9, align 8, !tbaa !3
  %48 = load ptr, ptr %8, align 8, !tbaa !3
  %49 = getelementptr inbounds nuw i8, ptr %48, i32 1
  store ptr %49, ptr %8, align 8, !tbaa !3
  %50 = load ptr, ptr %8, align 8, !tbaa !3
  %51 = getelementptr inbounds i8, ptr %50, i64 -1
  %52 = load i8, ptr %51, align 1, !tbaa !10
  %53 = zext i8 %52 to i32
  store i32 %53, ptr %7, align 4, !tbaa !11
  br label %54

54:                                               ; preds = %58, %43
  %55 = load ptr, ptr %8, align 8, !tbaa !3
  %56 = load ptr, ptr %9, align 8, !tbaa !3
  %57 = icmp ult ptr %55, %56
  br i1 %57, label %58, label %76

58:                                               ; preds = %54
  call void @llvm.lifetime.start.p0(i64 4, ptr %12) #6
  %59 = load ptr, ptr %8, align 8, !tbaa !3
  %60 = getelementptr inbounds i8, ptr %59, i64 0
  %61 = load i8, ptr %60, align 1, !tbaa !10
  %62 = zext i8 %61 to i32
  %63 = load i32, ptr %7, align 4, !tbaa !11
  %64 = sub nsw i32 %62, %63
  %65 = add nsw i32 %64, 384
  store i32 %65, ptr %12, align 4, !tbaa !11
  %66 = load ptr, ptr %8, align 8, !tbaa !3
  %67 = getelementptr inbounds i8, ptr %66, i64 0
  %68 = load i8, ptr %67, align 1, !tbaa !10
  %69 = zext i8 %68 to i32
  store i32 %69, ptr %7, align 4, !tbaa !11
  %70 = load i32, ptr %12, align 4, !tbaa !11
  %71 = trunc i32 %70 to i8
  %72 = load ptr, ptr %8, align 8, !tbaa !3
  %73 = getelementptr inbounds i8, ptr %72, i64 0
  store i8 %71, ptr %73, align 1, !tbaa !10
  %74 = load ptr, ptr %8, align 8, !tbaa !3
  %75 = getelementptr inbounds nuw i8, ptr %74, i32 1
  store ptr %75, ptr %8, align 8, !tbaa !3
  call void @llvm.lifetime.end.p0(i64 4, ptr %12) #6
  br label %54, !llvm.loop !19

76:                                               ; preds = %54
  call void @llvm.lifetime.end.p0(i64 8, ptr %11) #6
  call void @llvm.lifetime.end.p0(i64 8, ptr %10) #6
  call void @llvm.lifetime.end.p0(i64 8, ptr %9) #6
  call void @llvm.lifetime.end.p0(i64 8, ptr %8) #6
  call void @llvm.lifetime.end.p0(i64 4, ptr %7) #6
  ret void
}