; Function Attrs: nofree norecurse nosync nounwind memory(argmem: readwrite) uwtable
define hidden void @internal_zip_deconstruct_bytes(ptr noundef %0, ptr noundef readonly %1, i64 noundef %2) local_unnamed_addr #1 {
  %4 = getelementptr inbounds nuw i8, ptr %1, i64 %2
  %.not = icmp eq i64 %2, 0
  br i1 %.not, label %._crit_edge42, label %.lr.ph.preheader

.lr.ph.preheader:                                 ; preds = %3
  %5 = add i64 %2, 1
  %6 = lshr i64 %5, 1
  %7 = getelementptr inbounds nuw i8, ptr %0, i64 %6
  br label %.lr.ph

.lr.ph:                                           ; preds = %.lr.ph.preheader, %16
  %.02636 = phi ptr [ %10, %16 ], [ %0, %.lr.ph.preheader ]
  %.02735 = phi ptr [ %.128, %16 ], [ %1, %.lr.ph.preheader ]
  %.02934 = phi ptr [ %.130, %16 ], [ %7, %.lr.ph.preheader ]
  %8 = getelementptr inbounds nuw i8, ptr %.02735, i64 1
  %9 = load i8, ptr %.02735, align 1, !tbaa !3
  %10 = getelementptr inbounds nuw i8, ptr %.02636, i64 1
  store i8 %9, ptr %.02636, align 1, !tbaa !3
  %11 = icmp ult ptr %8, %4
  br i1 %11, label %12, label %16

12:                                               ; preds = %.lr.ph
  %13 = getelementptr inbounds nuw i8, ptr %.02735, i64 2
  %14 = load i8, ptr %8, align 1, !tbaa !3
  %15 = getelementptr inbounds nuw i8, ptr %.02934, i64 1
  store i8 %14, ptr %.02934, align 1, !tbaa !3
  br label %16

16:                                               ; preds = %12, %.lr.ph
  %.130 = phi ptr [ %15, %12 ], [ %.02934, %.lr.ph ]
  %.128 = phi ptr [ %13, %12 ], [ %8, %.lr.ph ]
  %17 = icmp ult ptr %.128, %4
  br i1 %17, label %.lr.ph, label %._crit_edge, !llvm.loop !10

._crit_edge:                                      ; preds = %16
  %18 = getelementptr inbounds nuw i8, ptr %0, i64 %2
  %.not43 = icmp eq i64 %2, 1
  br i1 %.not43, label %._crit_edge42, label %.lr.ph41.preheader

.lr.ph41.preheader:                               ; preds = %._crit_edge
  %.137 = getelementptr inbounds nuw i8, ptr %0, i64 1
  %19 = load i8, ptr %0, align 1, !tbaa !3
  br label %.lr.ph41

.lr.ph41:                                         ; preds = %.lr.ph41.preheader, %.lr.ph41
  %.139 = phi ptr [ %.1, %.lr.ph41 ], [ %.137, %.lr.ph41.preheader ]
  %.038 = phi i8 [ %20, %.lr.ph41 ], [ %19, %.lr.ph41.preheader ]
  %20 = load i8, ptr %.139, align 1, !tbaa !3
  %21 = sub i8 %20, %.038
  %22 = xor i8 %21, -128
  store i8 %22, ptr %.139, align 1, !tbaa !3
  %.1 = getelementptr inbounds nuw i8, ptr %.139, i64 1
  %23 = icmp ult ptr %.1, %18
  br i1 %23, label %.lr.ph41, label %._crit_edge42, !llvm.loop !11

._crit_edge42:                                    ; preds = %.lr.ph41, %3, %._crit_edge
  ret void
}